target datalayout = "e-m:e-p270:32:32-p271:32:32-p272:64:64-i64:64-i128:128-f80:128-n8:16:32:64-S128"
target triple = "x86_64-pc-linux-gnu"

%struct.lua_State = type { ptr, i8, i8, i8, i8, i16, %union.StkIdRel, ptr, ptr, %union.StkIdRel, %union.StkIdRel, ptr, %union.StkIdRel, ptr, ptr, ptr, %struct.CallInfo, ptr, i64, i32, i32, i32, i32, i32, %struct.anon.2 }
%union.StkIdRel = type { ptr }
%struct.CallInfo = type { %union.StkIdRel, %union.StkIdRel, ptr, ptr, %union.anon, %union.anon.1, i32 }
%union.anon = type { %struct.anon.0 }
%struct.anon.0 = type { ptr, i64, i64 }
%union.anon.1 = type { i32 }
%struct.anon.2 = type { i32, i32 }
%struct.global_State = type { ptr, ptr, i64, i64, i64, i64, %struct.stringtable, %struct.TValue, %struct.TValue, i32, [6 x i8], i8, i8, i8, i8, i8, i8, ptr, ptr, ptr, ptr, ptr, ptr, ptr, ptr, ptr, ptr, ptr, ptr, ptr, ptr, ptr, ptr, ptr, ptr, ptr, ptr, ptr, [25 x ptr], [9 x ptr], [53 x [2 x ptr]], ptr, ptr }
%struct.stringtable = type { ptr, i32, i32 }
%struct.TValue = type { %union.Value, i8 }
%union.Value = type { ptr }

@.str = private unnamed_addr constant [26 x i8] c"too many %s (limit is %d)\00", align 1

; Function Attrs: nounwind uwtable
define hidden ptr @luaM_realloc_(ptr noundef %0, ptr noundef %1, i64 noundef %2, i64 noundef %3) #0 {
  %5 = alloca ptr, align 8
  %6 = alloca ptr, align 8
  %7 = alloca ptr, align 8
  %8 = alloca i64, align 8
  %9 = alloca i64, align 8
  %10 = alloca ptr, align 8
  %11 = alloca ptr, align 8
  %12 = alloca i32, align 4
  store ptr %0, ptr %6, align 8, !tbaa !4
  store ptr %1, ptr %7, align 8, !tbaa !9
  store i64 %2, ptr %8, align 8, !tbaa !16
  store i64 %3, ptr %9, align 8, !tbaa !16
  call void @llvm.lifetime.start.p0(i64 8, ptr %10) #6
  call void @llvm.lifetime.start.p0(i64 8, ptr %11) #6
  %13 = load ptr, ptr %6, align 8, !tbaa !4
  %14 = getelementptr inbounds nuw %struct.lua_State, ptr %13, i32 0, i32 7
  %15 = load ptr, ptr %14, align 8, !tbaa !18
  store ptr %15, ptr %11, align 8, !tbaa !28
  %16 = load ptr, ptr %11, align 8, !tbaa !28
  %17 = getelementptr inbounds nuw %struct.global_State, ptr %16, i32 0, i32 0
  %18 = load ptr, ptr %17, align 8, !tbaa !29
  %19 = load ptr, ptr %11, align 8, !tbaa !28
  %20 = getelementptr inbounds nuw %struct.global_State, ptr %19, i32 0, i32 1
  %21 = load ptr, ptr %20, align 8, !tbaa !36
  %22 = load ptr, ptr %7, align 8, !tbaa !9
  %23 = load i64, ptr %8, align 8, !tbaa !16
  %24 = load i64, ptr %9, align 8, !tbaa !16
  %25 = call ptr %18(ptr noundef %21, ptr noundef %22, i64 noundef %23, i64 noundef %24)
  store ptr %25, ptr %10, align 8, !tbaa !9
  %26 = load ptr, ptr %10, align 8, !tbaa !9
  %27 = icmp eq ptr %26, null
  br i1 %27, label %28, label %31

28:                                               ; preds = %4
  %29 = load i64, ptr %9, align 8, !tbaa !16
  %30 = icmp ugt i64 %29, 0
  br label %31

31:                                               ; preds = %28, %4
  %32 = phi i1 [ false, %4 ], [ %30, %28 ]
  %33 = zext i1 %32 to i32
  %34 = icmp ne i32 %33, 0
  %35 = zext i1 %34 to i32
  %36 = sext i32 %35 to i64
  %37 = call i64 @llvm.expect.i64(i64 %36, i64 0)
  %38 = icmp ne i64 %37, 0
  br i1 %38, label %39, label %49

39:                                               ; preds = %31
  %40 = load ptr, ptr %6, align 8, !tbaa !4
  %41 = load ptr, ptr %7, align 8, !tbaa !9
  %42 = load i64, ptr %8, align 8, !tbaa !16
  %43 = load i64, ptr %9, align 8, !tbaa !16
  %44 = call ptr @tryagain(ptr noundef %40, ptr noundef %41, i64 noundef %42, i64 noundef %43)
  store ptr %44, ptr %10, align 8, !tbaa !9
  %45 = load ptr, ptr %10, align 8, !tbaa !9
  %46 = icmp eq ptr %45, null
  br i1 %46, label %47, label %48

47:                                               ; preds = %39
  store ptr null, ptr %5, align 8
  store i32 1, ptr %12, align 4
  br label %58

48:                                               ; preds = %39
  br label %49

49:                                               ; preds = %48, %31
  %50 = load i64, ptr %9, align 8, !tbaa !16
  %51 = load i64, ptr %8, align 8, !tbaa !16
  %52 = sub nsw i64 %50, %51
  %53 = load ptr, ptr %11, align 8, !tbaa !28
  %54 = getelementptr inbounds nuw %struct.global_State, ptr %53, i32 0, i32 3
  %55 = load i64, ptr %54, align 8, !tbaa !37
  %56 = sub nsw i64 %55, %52
  store i64 %56, ptr %54, align 8, !tbaa !37
  %57 = load ptr, ptr %10, align 8, !tbaa !9
  store ptr %57, ptr %5, align 8
  store i32 1, ptr %12, align 4
  br label %58

58:                                               ; preds = %49, %47
  call void @llvm.lifetime.end.p0(i64 8, ptr %11) #6
  call void @llvm.lifetime.end.p0(i64 8, ptr %10) #6
  %59 = load ptr, ptr %5, align 8
  ret ptr %59
}

; Function Attrs: nounwind uwtable
define hidden ptr @luaM_saferealloc_(ptr noundef %0, ptr noundef %1, i64 noundef %2, i64 noundef %3) #0 {
  %5 = alloca ptr, align 8
  %6 = alloca ptr, align 8
  %7 = alloca i64, align 8
  %8 = alloca i64, align 8
  %9 = alloca ptr, align 8
  store ptr %0, ptr %5, align 8, !tbaa !4
  store ptr %1, ptr %6, align 8, !tbaa !9
  store i64 %2, ptr %7, align 8, !tbaa !16
  store i64 %3, ptr %8, align 8, !tbaa !16
  call void @llvm.lifetime.start.p0(i64 8, ptr %9) #6
  %10 = load ptr, ptr %5, align 8, !tbaa !4
  %11 = load ptr, ptr %6, align 8, !tbaa !9
  %12 = load i64, ptr %7, align 8, !tbaa !16
  %13 = load i64, ptr %8, align 8, !tbaa !16
  %14 = call ptr @luaM_realloc_(ptr noundef %10, ptr noundef %11, i64 noundef %12, i64 noundef %13)
  store ptr %14, ptr %9, align 8, !tbaa !9
  %15 = load ptr, ptr %9, align 8, !tbaa !9
  %16 = icmp eq ptr %15, null
  br i1 %16, label %17, label %20

17:                                               ; preds = %4
  %18 = load i64, ptr %8, align 8, !tbaa !16
  %19 = icmp ugt i64 %18, 0
  br label %20

20:                                               ; preds = %17, %4
  %21 = phi i1 [ false, %4 ], [ %19, %17 ]
  %22 = zext i1 %21 to i32
  %23 = icmp ne i32 %22, 0
  %24 = zext i1 %23 to i32
  %25 = sext i32 %24 to i64
  %26 = call i64 @llvm.expect.i64(i64 %25, i64 0)
  %27 = icmp ne i64 %26, 0
  br i1 %27, label %28, label %30

28:                                               ; preds = %20
  %29 = load ptr, ptr %5, align 8, !tbaa !4
  call void @luaD_throw(ptr noundef %29, i32 noundef 4) #7
  unreachable

30:                                               ; preds = %20
  %31 = load ptr, ptr %9, align 8, !tbaa !9
  call void @llvm.lifetime.end.p0(i64 8, ptr %9) #6
  ret ptr %31
}

; Function Attrs: nounwind uwtable
define hidden ptr @luaM_growaux_(ptr noundef %0, ptr noundef %1, i32 noundef %2, ptr noundef %3, i32 noundef %4, i32 noundef %5, ptr noundef %6) #0 {
  %8 = alloca ptr, align 8
  %9 = alloca ptr, align 8
  %10 = alloca ptr, align 8
  %11 = alloca i32, align 4
  %12 = alloca ptr, align 8
  %13 = alloca i32, align 4
  %14 = alloca i32, align 4
  %15 = alloca ptr, align 8
  %16 = alloca ptr, align 8
  %17 = alloca i32, align 4
  %18 = alloca i32, align 4
  store ptr %0, ptr %9, align 8, !tbaa !4
  store ptr %1, ptr %10, align 8, !tbaa !9
  store i32 %2, ptr %11, align 4, !tbaa !10
  store ptr %3, ptr %12, align 8, !tbaa !12
  store i32 %4, ptr %13, align 4, !tbaa !10
  store i32 %5, ptr %14, align 4, !tbaa !10
  store ptr %6, ptr %15, align 8, !tbaa !14
  call void @llvm.lifetime.start.p0(i64 8, ptr %16) #6
  call void @llvm.lifetime.start.p0(i64 4, ptr %17) #6
  %19 = load ptr, ptr %12, align 8, !tbaa !12
  %20 = load i32, ptr %19, align 4, !tbaa !10
  store i32 %20, ptr %17, align 4, !tbaa !10
  %21 = load i32, ptr %11, align 4, !tbaa !10
  %22 = add nsw i32 %21, 1
  %23 = load i32, ptr %17, align 4, !tbaa !10
  %24 = icmp sle i32 %22, %23
  br i1 %24, label %25, label %27

25:                                               ; preds = %7
  %26 = load ptr, ptr %10, align 8, !tbaa !9
  store ptr %26, ptr %8, align 8
  store i32 1, ptr %18, align 4
  br label %73

27:                                               ; preds = %7
  %28 = load i32, ptr %17, align 4, !tbaa !10
  %29 = load i32, ptr %14, align 4, !tbaa !10
  %30 = sdiv i32 %29, 2
  %31 = icmp sge i32 %28, %30
  br i1 %31, label %32, label %48

32:                                               ; preds = %27
  %33 = load i32, ptr %17, align 4, !tbaa !10
  %34 = load i32, ptr %14, align 4, !tbaa !10
  %35 = icmp sge i32 %33, %34
  %36 = zext i1 %35 to i32
  %37 = icmp ne i32 %36, 0
  %38 = zext i1 %37 to i32
  %39 = sext i32 %38 to i64
  %40 = call i64 @llvm.expect.i64(i64 %39, i64 0)
  %41 = icmp ne i64 %40, 0
  br i1 %41, label %42, label %46

42:                                               ; preds = %32
  %43 = load ptr, ptr %9, align 8, !tbaa !4
  %44 = load ptr, ptr %15, align 8, !tbaa !14
  %45 = load i32, ptr %14, align 4, !tbaa !10
  call void (ptr, ptr, ...) @luaG_runerror(ptr noundef %43, ptr noundef @.str, ptr noundef %44, i32 noundef %45) #7
  unreachable

46:                                               ; preds = %32
  %47 = load i32, ptr %14, align 4, !tbaa !10
  store i32 %47, ptr %17, align 4, !tbaa !10
  br label %55

48:                                               ; preds = %27
  %49 = load i32, ptr %17, align 4, !tbaa !10
  %50 = mul nsw i32 %49, 2
  store i32 %50, ptr %17, align 4, !tbaa !10
  %51 = load i32, ptr %17, align 4, !tbaa !10
  %52 = icmp slt i32 %51, 4
  br i1 %52, label %53, label %54

53:                                               ; preds = %48
  store i32 4, ptr %17, align 4, !tbaa !10
  br label %54

54:                                               ; preds = %53, %48
  br label %55

55:                                               ; preds = %54, %46
  %56 = load ptr, ptr %9, align 8, !tbaa !4
  %57 = load ptr, ptr %10, align 8, !tbaa !9
  %58 = load ptr, ptr %12, align 8, !tbaa !12
  %59 = load i32, ptr %58, align 4, !tbaa !10
  %60 = sext i32 %59 to i64
  %61 = load i32, ptr %13, align 4, !tbaa !10
  %62 = zext i32 %61 to i64
  %63 = mul i64 %60, %62
  %64 = load i32, ptr %17, align 4, !tbaa !10
  %65 = sext i32 %64 to i64
  %66 = load i32, ptr %13, align 4, !tbaa !10
  %67 = zext i32 %66 to i64
  %68 = mul i64 %65, %67
  %69 = call ptr @luaM_saferealloc_(ptr noundef %56, ptr noundef %57, i64 noundef %63, i64 noundef %68)
  store ptr %69, ptr %16, align 8, !tbaa !9
  %70 = load i32, ptr %17, align 4, !tbaa !10
  %71 = load ptr, ptr %12, align 8, !tbaa !12
  store i32 %70, ptr %71, align 4, !tbaa !10
  %72 = load ptr, ptr %16, align 8, !tbaa !9
  store ptr %72, ptr %8, align 8
  store i32 1, ptr %18, align 4
  br label %73

73:                                               ; preds = %55, %25
  call void @llvm.lifetime.end.p0(i64 4, ptr %17) #6
  call void @llvm.lifetime.end.p0(i64 8, ptr %16) #6
  %74 = load ptr, ptr %8, align 8
  ret ptr %74
}