; Function Attrs: nounwind uwtable
define hidden ptr @luaM_growaux_(ptr noundef %0, ptr noundef %1, i32 noundef %2, ptr noundef captures(none) %3, i32 noundef %4, i32 noundef %5, ptr noundef %6) local_unnamed_addr #0 {
  %8 = load i32, ptr %3, align 4, !tbaa !4
  %.not.not = icmp slt i32 %2, %8
  br i1 %.not.not, label %40, label %9

9:                                                ; preds = %7
  %10 = sdiv i32 %5, 2
  %.not = icmp slt i32 %8, %10
  br i1 %.not, label %13, label %11

11:                                               ; preds = %9
  %.not26 = icmp slt i32 %8, %5
  br i1 %.not26, label %15, label %12, !prof !8

12:                                               ; preds = %11
  tail call void (ptr, ptr, ...) @luaG_runerror(ptr noundef %0, ptr noundef nonnull @.str, ptr noundef %6, i32 noundef %5) #5
  unreachable

13:                                               ; preds = %9
  %14 = shl nsw i32 %8, 1
  %spec.store.select = tail call i32 @llvm.smax.i32(i32 %14, i32 4)
  br label %15

15:                                               ; preds = %11, %13
  %.0 = phi i32 [ %spec.store.select, %13 ], [ %5, %11 ]
  %16 = sext i32 %8 to i64
  %17 = zext i32 %4 to i64
  %18 = mul nsw i64 %16, %17
  %19 = sext i32 %.0 to i64
  %20 = mul nsw i64 %19, %17
  %21 = getelementptr inbounds nuw i8, ptr %0, i64 24
  %22 = load ptr, ptr %21, align 8, !tbaa !9
  %23 = load ptr, ptr %22, align 8, !tbaa !22
  %24 = getelementptr inbounds nuw i8, ptr %22, i64 8
  %25 = load ptr, ptr %24, align 8, !tbaa !29
  %26 = tail call ptr %23(ptr noundef %25, ptr noundef %1, i64 noundef %18, i64 noundef %20) #6
  %27 = icmp eq ptr %26, null
  %28 = icmp ne i64 %20, 0
  %29 = and i1 %28, %27
  br i1 %29, label %30, label %33, !prof !30

30:                                               ; preds = %15
  %31 = tail call fastcc ptr @tryagain(ptr noundef nonnull %0, ptr noundef %1, i64 noundef %18, i64 noundef %20)
  %32 = icmp eq ptr %31, null
  br i1 %32, label %luaM_realloc_.exit.i, label %33

33:                                               ; preds = %30, %15
  %.017.i.i = phi ptr [ %31, %30 ], [ %26, %15 ]
  %.neg.i.i = sub i64 %18, %20
  %34 = getelementptr inbounds nuw i8, ptr %22, i64 24
  %35 = load i64, ptr %34, align 8, !tbaa !31
  %36 = add i64 %.neg.i.i, %35
  store i64 %36, ptr %34, align 8, !tbaa !31
  br label %luaM_realloc_.exit.i

luaM_realloc_.exit.i:                             ; preds = %33, %30
  %.0.i.i = phi ptr [ %.017.i.i, %33 ], [ null, %30 ]
  %37 = icmp eq ptr %.0.i.i, null
  %38 = and i1 %28, %37
  br i1 %38, label %39, label %luaM_saferealloc_.exit, !prof !30

39:                                               ; preds = %luaM_realloc_.exit.i
  tail call void @luaD_throw(ptr noundef nonnull %0, i32 noundef 4) #5
  unreachable

luaM_saferealloc_.exit:                           ; preds = %luaM_realloc_.exit.i
  store i32 %.0, ptr %3, align 4, !tbaa !4
  br label %40

40:                                               ; preds = %7, %luaM_saferealloc_.exit
  %.023 = phi ptr [ %.0.i.i, %luaM_saferealloc_.exit ], [ %1, %7 ]
  ret ptr %.023
}